#include <math.h>
#include <stdio.h>
#include <stdlib.h>
#include <string.h>

int main()
{
	 long a[300];
     int n,i,j;
	scanf("%d",&n);
	scanf("%ld",&a[0]);
	printf("%ld",a[0]);
	for(i=1;i<n;i++)
	{
		scanf("%ld",&a[i]);
	    for(j=0;j<i;j++)
		{
			if(a[i]==a[j])break;
		}
		if(j>=i)
			printf(",%d",a[i]);
	}
		return 0;
}
